ccopy_reg
_reconstructor
p0
(c__main__
Credentials
p1
c__builtin__
object
p2
Ntp3
Rp4
(dp5
Vusername
p6
VUsername
p7
sVpassword
p8
c_codecs
encode
p9
(VP455W0RD
p10
Vlatin1
p11
tp12
Rp13
sVurl
p14
Vhttp://example.com/
p15
sVcomment
p16
VMy password.
p17
sb.